; Function Attrs: mustprogress nounwind uwtable
define internal void @_ZN4node4quic12_GLOBAL__N_114KeylogCallbackEPK6ssl_stPKc(ptr noundef %ssl, ptr noundef %line) #4 {
entry:
  %call.i = tail call ptr @SSL_get_ex_data(ptr noundef %ssl, i32 noundef 0) #18
  %0 = ptrtoint ptr %call.i to i64
  %sub.i.i.i = add i64 %0, -8
  %1 = inttoptr i64 %sub.i.i.i to ptr
  %session_.i = getelementptr inbounds i8, ptr %1, i64 40
  %2 = load ptr, ptr %session_.i, align 8
  tail call void @_ZN4node4quic7Session10EmitKeylogEPKc(ptr noundef nonnull align 8 dereferenceable(2616) %2, ptr noundef %line) #18
  ret void
}